target datalayout = "e-m:e-p270:32:32-p271:32:32-p272:64:64-i64:64-i128:128-f80:128-n8:16:32:64-S128"
target triple = "x86_64-pc-linux-gnu"

%struct.AVMotionEstContext = type { ptr, ptr, i32, i32, i32, i32, i32, i32, i32, i32, i32, i32, i32, [2 x %struct.AVMotionEstPredictor], ptr }
%struct.AVMotionEstPredictor = type { [10 x [2 x i32]], i32 }

; Function Attrs: alwaysinline nounwind willreturn memory(none) uwtable
define internal i32 @av_clip_c(i32 noundef %0, i32 noundef %1, i32 noundef %2) #7 {
  %4 = alloca i32, align 4
  %5 = alloca i32, align 4
  %6 = alloca i32, align 4
  %7 = alloca i32, align 4
  store i32 %0, ptr %5, align 4, !tbaa !34
  store i32 %1, ptr %6, align 4, !tbaa !34
  store i32 %2, ptr %7, align 4, !tbaa !34
  %8 = load i32, ptr %5, align 4, !tbaa !34
  %9 = load i32, ptr %6, align 4, !tbaa !34
  %10 = icmp slt i32 %8, %9
  br i1 %10, label %11, label %13

11:                                               ; preds = %3
  %12 = load i32, ptr %6, align 4, !tbaa !34
  store i32 %12, ptr %4, align 4
  br label %21

13:                                               ; preds = %3
  %14 = load i32, ptr %5, align 4, !tbaa !34
  %15 = load i32, ptr %7, align 4, !tbaa !34
  %16 = icmp sgt i32 %14, %15
  br i1 %16, label %17, label %19

17:                                               ; preds = %13
  %18 = load i32, ptr %7, align 4, !tbaa !34
  store i32 %18, ptr %4, align 4
  br label %21

19:                                               ; preds = %13
  %20 = load i32, ptr %5, align 4, !tbaa !34
  store i32 %20, ptr %4, align 4
  br label %21

21:                                               ; preds = %19, %17, %11
  %22 = load i32, ptr %4, align 4
  ret i32 %22
}

; Function Attrs: nounwind uwtable
define internal i64 @get_sbad_ob(ptr noundef %0, i32 noundef %1, i32 noundef %2, i32 noundef %3, i32 noundef %4) #1 {
  %6 = alloca ptr, align 8
  %7 = alloca i32, align 4
  %8 = alloca i32, align 4
  %9 = alloca i32, align 4
  %10 = alloca i32, align 4
  %11 = alloca ptr, align 8
  %12 = alloca ptr, align 8
  %13 = alloca i32, align 4
  %14 = alloca i32, align 4
  %15 = alloca i32, align 4
  %16 = alloca i32, align 4
  %17 = alloca i32, align 4
  %18 = alloca i32, align 4
  %19 = alloca i32, align 4
  %20 = alloca i32, align 4
  %21 = alloca i32, align 4
  %22 = alloca i32, align 4
  %23 = alloca i32, align 4
  %24 = alloca i64, align 8
  store ptr %0, ptr %6, align 8, !tbaa !66
  store i32 %1, ptr %7, align 4, !tbaa !34
  store i32 %2, ptr %8, align 4, !tbaa !34
  store i32 %3, ptr %9, align 4, !tbaa !34
  store i32 %4, ptr %10, align 4, !tbaa !34
  call void @llvm.lifetime.start.p0(i64 8, ptr %11) #12
  %25 = load ptr, ptr %6, align 8, !tbaa !66
  %26 = getelementptr inbounds nuw %struct.AVMotionEstContext, ptr %25, i32 0, i32 0
  %27 = load ptr, ptr %26, align 8, !tbaa !152
  store ptr %27, ptr %11, align 8, !tbaa !102
  call void @llvm.lifetime.start.p0(i64 8, ptr %12) #12
  %28 = load ptr, ptr %6, align 8, !tbaa !66
  %29 = getelementptr inbounds nuw %struct.AVMotionEstContext, ptr %28, i32 0, i32 1
  %30 = load ptr, ptr %29, align 8, !tbaa !153
  store ptr %30, ptr %12, align 8, !tbaa !102
  call void @llvm.lifetime.start.p0(i64 4, ptr %13) #12
  %31 = load ptr, ptr %6, align 8, !tbaa !66
  %32 = getelementptr inbounds nuw %struct.AVMotionEstContext, ptr %31, i32 0, i32 2
  %33 = load i32, ptr %32, align 8, !tbaa !154
  store i32 %33, ptr %13, align 4, !tbaa !34
  call void @llvm.lifetime.start.p0(i64 4, ptr %14) #12
  %34 = load ptr, ptr %6, align 8, !tbaa !66
  %35 = getelementptr inbounds nuw %struct.AVMotionEstContext, ptr %34, i32 0, i32 7
  %36 = load i32, ptr %35, align 4, !tbaa !155
  %37 = load ptr, ptr %6, align 8, !tbaa !66
  %38 = getelementptr inbounds nuw %struct.AVMotionEstContext, ptr %37, i32 0, i32 3
  %39 = load i32, ptr %38, align 4, !tbaa !159
  %40 = sdiv i32 %39, 2
  %41 = add nsw i32 %36, %40
  store i32 %41, ptr %14, align 4, !tbaa !34
  call void @llvm.lifetime.start.p0(i64 4, ptr %15) #12
  %42 = load ptr, ptr %6, align 8, !tbaa !66
  %43 = getelementptr inbounds nuw %struct.AVMotionEstContext, ptr %42, i32 0, i32 8
  %44 = load i32, ptr %43, align 8, !tbaa !156
  %45 = load ptr, ptr %6, align 8, !tbaa !66
  %46 = getelementptr inbounds nuw %struct.AVMotionEstContext, ptr %45, i32 0, i32 3
  %47 = load i32, ptr %46, align 4, !tbaa !159
  %48 = sdiv i32 %47, 2
  %49 = sub nsw i32 %44, %48
  store i32 %49, ptr %15, align 4, !tbaa !34
  call void @llvm.lifetime.start.p0(i64 4, ptr %16) #12
  %50 = load ptr, ptr %6, align 8, !tbaa !66
  %51 = getelementptr inbounds nuw %struct.AVMotionEstContext, ptr %50, i32 0, i32 9
  %52 = load i32, ptr %51, align 4, !tbaa !157
  %53 = load ptr, ptr %6, align 8, !tbaa !66
  %54 = getelementptr inbounds nuw %struct.AVMotionEstContext, ptr %53, i32 0, i32 3
  %55 = load i32, ptr %54, align 4, !tbaa !159
  %56 = sdiv i32 %55, 2
  %57 = add nsw i32 %52, %56
  store i32 %57, ptr %16, align 4, !tbaa !34
  call void @llvm.lifetime.start.p0(i64 4, ptr %17) #12
  %58 = load ptr, ptr %6, align 8, !tbaa !66
  %59 = getelementptr inbounds nuw %struct.AVMotionEstContext, ptr %58, i32 0, i32 10
  %60 = load i32, ptr %59, align 8, !tbaa !158
  %61 = load ptr, ptr %6, align 8, !tbaa !66
  %62 = getelementptr inbounds nuw %struct.AVMotionEstContext, ptr %61, i32 0, i32 3
  %63 = load i32, ptr %62, align 4, !tbaa !159
  %64 = sdiv i32 %63, 2
  %65 = sub nsw i32 %60, %64
  store i32 %65, ptr %17, align 4, !tbaa !34
  call void @llvm.lifetime.start.p0(i64 4, ptr %18) #12
  %66 = load i32, ptr %9, align 4, !tbaa !34
  %67 = load i32, ptr %7, align 4, !tbaa !34
  %68 = sub nsw i32 %66, %67
  store i32 %68, ptr %18, align 4, !tbaa !34
  call void @llvm.lifetime.start.p0(i64 4, ptr %19) #12
  %69 = load i32, ptr %10, align 4, !tbaa !34
  %70 = load i32, ptr %8, align 4, !tbaa !34
  %71 = sub nsw i32 %69, %70
  store i32 %71, ptr %19, align 4, !tbaa !34
  call void @llvm.lifetime.start.p0(i64 4, ptr %20) #12
  call void @llvm.lifetime.start.p0(i64 4, ptr %21) #12
  call void @llvm.lifetime.start.p0(i64 4, ptr %22) #12
  call void @llvm.lifetime.start.p0(i64 4, ptr %23) #12
  call void @llvm.lifetime.start.p0(i64 8, ptr %24) #12
  store i64 0, ptr %24, align 8, !tbaa !116
  %72 = load i32, ptr %7, align 4, !tbaa !34
  %73 = load i32, ptr %14, align 4, !tbaa !34
  %74 = load i32, ptr %15, align 4, !tbaa !34
  %75 = call i32 @av_clip_c(i32 noundef %72, i32 noundef %73, i32 noundef %74) #14
  store i32 %75, ptr %7, align 4, !tbaa !34
  %76 = load i32, ptr %8, align 4, !tbaa !34
  %77 = load i32, ptr %16, align 4, !tbaa !34
  %78 = load i32, ptr %17, align 4, !tbaa !34
  %79 = call i32 @av_clip_c(i32 noundef %76, i32 noundef %77, i32 noundef %78) #14
  store i32 %79, ptr %8, align 4, !tbaa !34
  %80 = load i32, ptr %9, align 4, !tbaa !34
  %81 = load i32, ptr %7, align 4, !tbaa !34
  %82 = sub nsw i32 %80, %81
  %83 = load i32, ptr %7, align 4, !tbaa !34
  %84 = load i32, ptr %14, align 4, !tbaa !34
  %85 = sub nsw i32 %83, %84
  %86 = load i32, ptr %15, align 4, !tbaa !34
  %87 = load i32, ptr %7, align 4, !tbaa !34
  %88 = sub nsw i32 %86, %87
  %89 = icmp sgt i32 %85, %88
  br i1 %89, label %90, label %94

90:                                               ; preds = %5
  %91 = load i32, ptr %15, align 4, !tbaa !34
  %92 = load i32, ptr %7, align 4, !tbaa !34
  %93 = sub nsw i32 %91, %92
  br label %98

94:                                               ; preds = %5
  %95 = load i32, ptr %7, align 4, !tbaa !34
  %96 = load i32, ptr %14, align 4, !tbaa !34
  %97 = sub nsw i32 %95, %96
  br label %98

98:                                               ; preds = %94, %90
  %99 = phi i32 [ %93, %90 ], [ %97, %94 ]
  %100 = sub nsw i32 0, %99
  %101 = load i32, ptr %7, align 4, !tbaa !34
  %102 = load i32, ptr %14, align 4, !tbaa !34
  %103 = sub nsw i32 %101, %102
  %104 = load i32, ptr %15, align 4, !tbaa !34
  %105 = load i32, ptr %7, align 4, !tbaa !34
  %106 = sub nsw i32 %104, %105
  %107 = icmp sgt i32 %103, %106
  br i1 %107, label %108, label %112

108:                                              ; preds = %98
  %109 = load i32, ptr %15, align 4, !tbaa !34
  %110 = load i32, ptr %7, align 4, !tbaa !34
  %111 = sub nsw i32 %109, %110
  br label %116

112:                                              ; preds = %98
  %113 = load i32, ptr %7, align 4, !tbaa !34
  %114 = load i32, ptr %14, align 4, !tbaa !34
  %115 = sub nsw i32 %113, %114
  br label %116

116:                                              ; preds = %112, %108
  %117 = phi i32 [ %111, %108 ], [ %115, %112 ]
  %118 = call i32 @av_clip_c(i32 noundef %82, i32 noundef %100, i32 noundef %117) #14
  store i32 %118, ptr %20, align 4, !tbaa !34
  %119 = load i32, ptr %10, align 4, !tbaa !34
  %120 = load i32, ptr %8, align 4, !tbaa !34
  %121 = sub nsw i32 %119, %120
  %122 = load i32, ptr %8, align 4, !tbaa !34
  %123 = load i32, ptr %16, align 4, !tbaa !34
  %124 = sub nsw i32 %122, %123
  %125 = load i32, ptr %17, align 4, !tbaa !34
  %126 = load i32, ptr %8, align 4, !tbaa !34
  %127 = sub nsw i32 %125, %126
  %128 = icmp sgt i32 %124, %127
  br i1 %128, label %129, label %133

129:                                              ; preds = %116
  %130 = load i32, ptr %17, align 4, !tbaa !34
  %131 = load i32, ptr %8, align 4, !tbaa !34
  %132 = sub nsw i32 %130, %131
  br label %137

133:                                              ; preds = %116
  %134 = load i32, ptr %8, align 4, !tbaa !34
  %135 = load i32, ptr %16, align 4, !tbaa !34
  %136 = sub nsw i32 %134, %135
  br label %137

137:                                              ; preds = %133, %129
  %138 = phi i32 [ %132, %129 ], [ %136, %133 ]
  %139 = sub nsw i32 0, %138
  %140 = load i32, ptr %8, align 4, !tbaa !34
  %141 = load i32, ptr %16, align 4, !tbaa !34
  %142 = sub nsw i32 %140, %141
  %143 = load i32, ptr %17, align 4, !tbaa !34
  %144 = load i32, ptr %8, align 4, !tbaa !34
  %145 = sub nsw i32 %143, %144
  %146 = icmp sgt i32 %142, %145
  br i1 %146, label %147, label %151

147:                                              ; preds = %137
  %148 = load i32, ptr %17, align 4, !tbaa !34
  %149 = load i32, ptr %8, align 4, !tbaa !34
  %150 = sub nsw i32 %148, %149
  br label %155

151:                                              ; preds = %137
  %152 = load i32, ptr %8, align 4, !tbaa !34
  %153 = load i32, ptr %16, align 4, !tbaa !34
  %154 = sub nsw i32 %152, %153
  br label %155

155:                                              ; preds = %151, %147
  %156 = phi i32 [ %150, %147 ], [ %154, %151 ]
  %157 = call i32 @av_clip_c(i32 noundef %121, i32 noundef %139, i32 noundef %156) #14
  store i32 %157, ptr %21, align 4, !tbaa !34
  %158 = load ptr, ptr %6, align 8, !tbaa !66
  %159 = getelementptr inbounds nuw %struct.AVMotionEstContext, ptr %158, i32 0, i32 3
  %160 = load i32, ptr %159, align 4, !tbaa !159
  %161 = sub nsw i32 0, %160
  %162 = sdiv i32 %161, 2
  store i32 %162, ptr %23, align 4, !tbaa !34
  br label %163

163:                                              ; preds = %310, %155
  %164 = load i32, ptr %23, align 4, !tbaa !34
  %165 = load ptr, ptr %6, align 8, !tbaa !66
  %166 = getelementptr inbounds nuw %struct.AVMotionEstContext, ptr %165, i32 0, i32 3
  %167 = load i32, ptr %166, align 4, !tbaa !159
  %168 = mul nsw i32 %167, 3
  %169 = sdiv i32 %168, 2
  %170 = icmp slt i32 %164, %169
  br i1 %170, label %171, label %313

171:                                              ; preds = %163
  %172 = load ptr, ptr %6, align 8, !tbaa !66
  %173 = getelementptr inbounds nuw %struct.AVMotionEstContext, ptr %172, i32 0, i32 3
  %174 = load i32, ptr %173, align 4, !tbaa !159
  %175 = sub nsw i32 0, %174
  %176 = sdiv i32 %175, 2
  store i32 %176, ptr %22, align 4, !tbaa !34
  br label %177

177:                                              ; preds = %306, %171
  %178 = load i32, ptr %22, align 4, !tbaa !34
  %179 = load ptr, ptr %6, align 8, !tbaa !66
  %180 = getelementptr inbounds nuw %struct.AVMotionEstContext, ptr %179, i32 0, i32 3
  %181 = load i32, ptr %180, align 4, !tbaa !159
  %182 = mul nsw i32 %181, 3
  %183 = sdiv i32 %182, 2
  %184 = icmp slt i32 %178, %183
  br i1 %184, label %185, label %309

185:                                              ; preds = %177
  %186 = load ptr, ptr %11, align 8, !tbaa !102
  %187 = load i32, ptr %7, align 4, !tbaa !34
  %188 = load i32, ptr %20, align 4, !tbaa !34
  %189 = add nsw i32 %187, %188
  %190 = load i32, ptr %22, align 4, !tbaa !34
  %191 = add nsw i32 %189, %190
  %192 = load i32, ptr %8, align 4, !tbaa !34
  %193 = load i32, ptr %21, align 4, !tbaa !34
  %194 = add nsw i32 %192, %193
  %195 = load i32, ptr %23, align 4, !tbaa !34
  %196 = add nsw i32 %194, %195
  %197 = load i32, ptr %13, align 4, !tbaa !34
  %198 = mul nsw i32 %196, %197
  %199 = add nsw i32 %191, %198
  %200 = sext i32 %199 to i64
  %201 = getelementptr inbounds i8, ptr %186, i64 %200
  %202 = load i8, ptr %201, align 1, !tbaa !130
  %203 = zext i8 %202 to i32
  %204 = load ptr, ptr %12, align 8, !tbaa !102
  %205 = load i32, ptr %7, align 4, !tbaa !34
  %206 = load i32, ptr %20, align 4, !tbaa !34
  %207 = sub nsw i32 %205, %206
  %208 = load i32, ptr %22, align 4, !tbaa !34
  %209 = add nsw i32 %207, %208
  %210 = load i32, ptr %8, align 4, !tbaa !34
  %211 = load i32, ptr %21, align 4, !tbaa !34
  %212 = sub nsw i32 %210, %211
  %213 = load i32, ptr %23, align 4, !tbaa !34
  %214 = add nsw i32 %212, %213
  %215 = load i32, ptr %13, align 4, !tbaa !34
  %216 = mul nsw i32 %214, %215
  %217 = add nsw i32 %209, %216
  %218 = sext i32 %217 to i64
  %219 = getelementptr inbounds i8, ptr %204, i64 %218
  %220 = load i8, ptr %219, align 1, !tbaa !130
  %221 = zext i8 %220 to i32
  %222 = sub nsw i32 %203, %221
  %223 = icmp sge i32 %222, 0
  br i1 %223, label %224, label %262

224:                                              ; preds = %185
  %225 = load ptr, ptr %11, align 8, !tbaa !102
  %226 = load i32, ptr %7, align 4, !tbaa !34
  %227 = load i32, ptr %20, align 4, !tbaa !34
  %228 = add nsw i32 %226, %227
  %229 = load i32, ptr %22, align 4, !tbaa !34
  %230 = add nsw i32 %228, %229
  %231 = load i32, ptr %8, align 4, !tbaa !34
  %232 = load i32, ptr %21, align 4, !tbaa !34
  %233 = add nsw i32 %231, %232
  %234 = load i32, ptr %23, align 4, !tbaa !34
  %235 = add nsw i32 %233, %234
  %236 = load i32, ptr %13, align 4, !tbaa !34
  %237 = mul nsw i32 %235, %236
  %238 = add nsw i32 %230, %237
  %239 = sext i32 %238 to i64
  %240 = getelementptr inbounds i8, ptr %225, i64 %239
  %241 = load i8, ptr %240, align 1, !tbaa !130
  %242 = zext i8 %241 to i32
  %243 = load ptr, ptr %12, align 8, !tbaa !102
  %244 = load i32, ptr %7, align 4, !tbaa !34
  %245 = load i32, ptr %20, align 4, !tbaa !34
  %246 = sub nsw i32 %244, %245
  %247 = load i32, ptr %22, align 4, !tbaa !34
  %248 = add nsw i32 %246, %247
  %249 = load i32, ptr %8, align 4, !tbaa !34
  %250 = load i32, ptr %21, align 4, !tbaa !34
  %251 = sub nsw i32 %249, %250
  %252 = load i32, ptr %23, align 4, !tbaa !34
  %253 = add nsw i32 %251, %252
  %254 = load i32, ptr %13, align 4, !tbaa !34
  %255 = mul nsw i32 %253, %254
  %256 = add nsw i32 %248, %255
  %257 = sext i32 %256 to i64
  %258 = getelementptr inbounds i8, ptr %243, i64 %257
  %259 = load i8, ptr %258, align 1, !tbaa !130
  %260 = zext i8 %259 to i32
  %261 = sub nsw i32 %242, %260
  br label %301

262:                                              ; preds = %185
  %263 = load ptr, ptr %11, align 8, !tbaa !102
  %264 = load i32, ptr %7, align 4, !tbaa !34
  %265 = load i32, ptr %20, align 4, !tbaa !34
  %266 = add nsw i32 %264, %265
  %267 = load i32, ptr %22, align 4, !tbaa !34
  %268 = add nsw i32 %266, %267
  %269 = load i32, ptr %8, align 4, !tbaa !34
  %270 = load i32, ptr %21, align 4, !tbaa !34
  %271 = add nsw i32 %269, %270
  %272 = load i32, ptr %23, align 4, !tbaa !34
  %273 = add nsw i32 %271, %272
  %274 = load i32, ptr %13, align 4, !tbaa !34
  %275 = mul nsw i32 %273, %274
  %276 = add nsw i32 %268, %275
  %277 = sext i32 %276 to i64
  %278 = getelementptr inbounds i8, ptr %263, i64 %277
  %279 = load i8, ptr %278, align 1, !tbaa !130
  %280 = zext i8 %279 to i32
  %281 = load ptr, ptr %12, align 8, !tbaa !102
  %282 = load i32, ptr %7, align 4, !tbaa !34
  %283 = load i32, ptr %20, align 4, !tbaa !34
  %284 = sub nsw i32 %282, %283
  %285 = load i32, ptr %22, align 4, !tbaa !34
  %286 = add nsw i32 %284, %285
  %287 = load i32, ptr %8, align 4, !tbaa !34
  %288 = load i32, ptr %21, align 4, !tbaa !34
  %289 = sub nsw i32 %287, %288
  %290 = load i32, ptr %23, align 4, !tbaa !34
  %291 = add nsw i32 %289, %290
  %292 = load i32, ptr %13, align 4, !tbaa !34
  %293 = mul nsw i32 %291, %292
  %294 = add nsw i32 %286, %293
  %295 = sext i32 %294 to i64
  %296 = getelementptr inbounds i8, ptr %281, i64 %295
  %297 = load i8, ptr %296, align 1, !tbaa !130
  %298 = zext i8 %297 to i32
  %299 = sub nsw i32 %280, %298
  %300 = sub nsw i32 0, %299
  br label %301

301:                                              ; preds = %262, %224
  %302 = phi i32 [ %261, %224 ], [ %300, %262 ]
  %303 = sext i32 %302 to i64
  %304 = load i64, ptr %24, align 8, !tbaa !116
  %305 = add i64 %304, %303
  store i64 %305, ptr %24, align 8, !tbaa !116
  br label %306

306:                                              ; preds = %301
  %307 = load i32, ptr %22, align 4, !tbaa !34
  %308 = add nsw i32 %307, 1
  store i32 %308, ptr %22, align 4, !tbaa !34
  br label %177, !llvm.loop !205

309:                                              ; preds = %177
  br label %310

310:                                              ; preds = %309
  %311 = load i32, ptr %23, align 4, !tbaa !34
  %312 = add nsw i32 %311, 1
  store i32 %312, ptr %23, align 4, !tbaa !34
  br label %163, !llvm.loop !206

313:                                              ; preds = %163
  %314 = load i64, ptr %24, align 8, !tbaa !116
  %315 = load i32, ptr %18, align 4, !tbaa !34
  %316 = load ptr, ptr %6, align 8, !tbaa !66
  %317 = getelementptr inbounds nuw %struct.AVMotionEstContext, ptr %316, i32 0, i32 11
  %318 = load i32, ptr %317, align 4, !tbaa !145
  %319 = sub nsw i32 %315, %318
  %320 = icmp sge i32 %319, 0
  br i1 %320, label %321, label %327

321:                                              ; preds = %313
  %322 = load i32, ptr %18, align 4, !tbaa !34
  %323 = load ptr, ptr %6, align 8, !tbaa !66
  %324 = getelementptr inbounds nuw %struct.AVMotionEstContext, ptr %323, i32 0, i32 11
  %325 = load i32, ptr %324, align 4, !tbaa !145
  %326 = sub nsw i32 %322, %325
  br label %334

327:                                              ; preds = %313
  %328 = load i32, ptr %18, align 4, !tbaa !34
  %329 = load ptr, ptr %6, align 8, !tbaa !66
  %330 = getelementptr inbounds nuw %struct.AVMotionEstContext, ptr %329, i32 0, i32 11
  %331 = load i32, ptr %330, align 4, !tbaa !145
  %332 = sub nsw i32 %328, %331
  %333 = sub nsw i32 0, %332
  br label %334

334:                                              ; preds = %327, %321
  %335 = phi i32 [ %326, %321 ], [ %333, %327 ]
  %336 = load i32, ptr %19, align 4, !tbaa !34
  %337 = load ptr, ptr %6, align 8, !tbaa !66
  %338 = getelementptr inbounds nuw %struct.AVMotionEstContext, ptr %337, i32 0, i32 12
  %339 = load i32, ptr %338, align 8, !tbaa !146
  %340 = sub nsw i32 %336, %339
  %341 = icmp sge i32 %340, 0
  br i1 %341, label %342, label %348

342:                                              ; preds = %334
  %343 = load i32, ptr %19, align 4, !tbaa !34
  %344 = load ptr, ptr %6, align 8, !tbaa !66
  %345 = getelementptr inbounds nuw %struct.AVMotionEstContext, ptr %344, i32 0, i32 12
  %346 = load i32, ptr %345, align 8, !tbaa !146
  %347 = sub nsw i32 %343, %346
  br label %355

348:                                              ; preds = %334
  %349 = load i32, ptr %19, align 4, !tbaa !34
  %350 = load ptr, ptr %6, align 8, !tbaa !66
  %351 = getelementptr inbounds nuw %struct.AVMotionEstContext, ptr %350, i32 0, i32 12
  %352 = load i32, ptr %351, align 8, !tbaa !146
  %353 = sub nsw i32 %349, %352
  %354 = sub nsw i32 0, %353
  br label %355

355:                                              ; preds = %348, %342
  %356 = phi i32 [ %347, %342 ], [ %354, %348 ]
  %357 = add nsw i32 %335, %356
  %358 = mul nsw i32 %357, 64
  %359 = sext i32 %358 to i64
  %360 = add i64 %314, %359
  call void @llvm.lifetime.end.p0(i64 8, ptr %24) #12
  call void @llvm.lifetime.end.p0(i64 4, ptr %23) #12
  call void @llvm.lifetime.end.p0(i64 4, ptr %22) #12
  call void @llvm.lifetime.end.p0(i64 4, ptr %21) #12
  call void @llvm.lifetime.end.p0(i64 4, ptr %20) #12
  call void @llvm.lifetime.end.p0(i64 4, ptr %19) #12
  call void @llvm.lifetime.end.p0(i64 4, ptr %18) #12
  call void @llvm.lifetime.end.p0(i64 4, ptr %17) #12
  call void @llvm.lifetime.end.p0(i64 4, ptr %16) #12
  call void @llvm.lifetime.end.p0(i64 4, ptr %15) #12
  call void @llvm.lifetime.end.p0(i64 4, ptr %14) #12
  call void @llvm.lifetime.end.p0(i64 4, ptr %13) #12
  call void @llvm.lifetime.end.p0(i64 8, ptr %12) #12
  call void @llvm.lifetime.end.p0(i64 8, ptr %11) #12
  ret i64 %360
}