; Function Attrs: nofree norecurse nosync nounwind memory(read, inaccessiblemem: none) uwtable
define internal i64 @get_sbad_ob(ptr noundef readonly captures(none) %0, i32 noundef %1, i32 noundef %2, i32 noundef %3, i32 noundef %4) #6 {
  %6 = load ptr, ptr %0, align 8, !tbaa !94
  %7 = getelementptr inbounds nuw i8, ptr %0, i64 8
  %8 = load ptr, ptr %7, align 8, !tbaa !95
  %9 = getelementptr inbounds nuw i8, ptr %0, i64 16
  %10 = load i32, ptr %9, align 8, !tbaa !96
  %11 = getelementptr inbounds nuw i8, ptr %0, i64 20
  %12 = load i32, ptr %11, align 4, !tbaa !99
  %13 = sdiv i32 %12, -2
  %14 = mul nsw i32 %12, 3
  %15 = sdiv i32 %14, 2
  %16 = icmp slt i32 %13, %15
  br i1 %16, label %.preheader.lr.ph, label %._crit_edge157

.preheader.lr.ph:                                 ; preds = %5
  %17 = getelementptr inbounds nuw i8, ptr %0, i64 44
  %18 = load i32, ptr %17, align 4, !tbaa !97
  %19 = sdiv i32 %12, 2
  %20 = add nsw i32 %18, %19
  %21 = icmp slt i32 %2, %20
  %22 = getelementptr inbounds nuw i8, ptr %0, i64 48
  %23 = load i32, ptr %22, align 8, !tbaa !98
  %24 = sub nsw i32 %23, %19
  %..i144 = tail call i32 @llvm.smin.i32(i32 %2, i32 %24)
  %.0.i145 = select i1 %21, i32 %20, i32 %..i144
  %25 = sub nsw i32 %4, %.0.i145
  %26 = sub nsw i32 %.0.i145, %20
  %27 = sub nsw i32 %24, %.0.i145
  %28 = tail call i32 @llvm.smin.i32(i32 %26, i32 %27)
  %29 = sub nsw i32 0, %28
  %30 = icmp slt i32 %25, %29
  %..i = tail call i32 @llvm.smin.i32(i32 %25, i32 %28)
  %.0.i = select i1 %30, i32 %29, i32 %..i
  %31 = getelementptr inbounds nuw i8, ptr %0, i64 36
  %32 = load i32, ptr %31, align 4, !tbaa !100
  %33 = add nsw i32 %19, %32
  %34 = icmp slt i32 %1, %33
  %35 = getelementptr inbounds nuw i8, ptr %0, i64 40
  %36 = load i32, ptr %35, align 8, !tbaa !101
  %37 = sub nsw i32 %36, %19
  %..i146 = tail call i32 @llvm.smin.i32(i32 %1, i32 %37)
  %.0.i147 = select i1 %34, i32 %33, i32 %..i146
  %38 = sub nsw i32 %3, %.0.i147
  %39 = sub nsw i32 %.0.i147, %33
  %40 = sub nsw i32 %37, %.0.i147
  %. = tail call i32 @llvm.smin.i32(i32 %39, i32 %40)
  %41 = sub nsw i32 0, %.
  %42 = icmp slt i32 %38, %41
  %..i142 = tail call i32 @llvm.smin.i32(i32 %38, i32 %.)
  %.0.i143 = select i1 %42, i32 %41, i32 %..i142
  %43 = add nsw i32 %.0.i143, %.0.i147
  %44 = add nsw i32 %.0.i, %.0.i145
  %45 = sub i32 %.0.i147, %.0.i143
  %invariant.op159 = sub i32 %.0.i145, %.0.i
  %46 = sext i32 %13 to i64
  %wide.trip.count = sext i32 %15 to i64
  br label %.preheader.us

.preheader.us:                                    ; preds = %._crit_edge.us, %.preheader.lr.ph
  %.0156.us = phi i64 [ 0, %.preheader.lr.ph ], [ %67, %._crit_edge.us ]
  %.0126155.us = phi i32 [ %13, %.preheader.lr.ph ], [ %68, %._crit_edge.us ]
  %47 = add nsw i32 %44, %.0126155.us
  %48 = mul nsw i32 %47, %10
  %49 = add i32 %43, %48
  %.reass.reass.us = add i32 %.0126155.us, %invariant.op159
  %50 = mul nsw i32 %.reass.reass.us, %10
  %51 = add i32 %45, %50
  br label %52

52:                                               ; preds = %.preheader.us, %52
  %indvars.iv = phi i64 [ %46, %.preheader.us ], [ %indvars.iv.next, %52 ]
  %.1154.us = phi i64 [ %.0156.us, %.preheader.us ], [ %67, %52 ]
  %53 = trunc nsw i64 %indvars.iv to i32
  %54 = add i32 %49, %53
  %55 = sext i32 %54 to i64
  %56 = getelementptr inbounds i8, ptr %6, i64 %55
  %57 = load i8, ptr %56, align 1, !tbaa !76
  %58 = zext i8 %57 to i32
  %59 = add i32 %51, %53
  %60 = sext i32 %59 to i64
  %61 = getelementptr inbounds i8, ptr %8, i64 %60
  %62 = load i8, ptr %61, align 1, !tbaa !76
  %63 = zext i8 %62 to i32
  %64 = sub nsw i32 %58, %63
  %65 = tail call i32 @llvm.abs.i32(i32 %64, i1 true)
  %66 = zext nneg i32 %65 to i64
  %67 = add i64 %.1154.us, %66
  %indvars.iv.next = add nsw i64 %indvars.iv, 1
  %exitcond.not = icmp eq i64 %indvars.iv.next, %wide.trip.count
  br i1 %exitcond.not, label %._crit_edge.us, label %52, !llvm.loop !186

._crit_edge.us:                                   ; preds = %52
  %68 = add nsw i32 %.0126155.us, 1
  %exitcond161.not = icmp eq i32 %68, %15
  br i1 %exitcond161.not, label %._crit_edge157, label %.preheader.us, !llvm.loop !187

._crit_edge157:                                   ; preds = %._crit_edge.us, %5
  %.0.lcssa = phi i64 [ 0, %5 ], [ %67, %._crit_edge.us ]
  %69 = getelementptr inbounds nuw i8, ptr %0, i64 52
  %70 = load i32, ptr %69, align 4, !tbaa !104
  %71 = add i32 %1, %70
  %72 = sub i32 %3, %71
  %73 = tail call i32 @llvm.abs.i32(i32 %72, i1 true)
  %74 = getelementptr inbounds nuw i8, ptr %0, i64 56
  %75 = load i32, ptr %74, align 8, !tbaa !105
  %76 = add i32 %2, %75
  %77 = sub i32 %4, %76
  %78 = tail call i32 @llvm.abs.i32(i32 %77, i1 true)
  %79 = add nuw nsw i32 %78, %73
  %80 = shl nsw i32 %79, 6
  %81 = zext nneg i32 %80 to i64
  %82 = add i64 %.0.lcssa, %81
  ret i64 %82
}